; Function Attrs: nounwind uwtable
define hidden void @Index8GrayToIndex8GrayScaleConvert(ptr noundef %0, ptr noundef %1, i32 noundef %2, i32 noundef %3, i32 noundef %4, i32 noundef %5, i32 noundef %6, i32 noundef %7, i32 noundef %8, ptr noundef %9, ptr noundef %10, ptr nocapture readnone %11, ptr nocapture readnone %12) #1 {
  %14 = getelementptr inbounds i8, ptr %9, i64 32
  %15 = getelementptr inbounds i8, ptr %10, i64 32
  %16 = getelementptr inbounds i8, ptr %9, i64 40
  %17 = load ptr, ptr %16, align 8
  %18 = getelementptr inbounds i8, ptr %10, i64 40
  %19 = load ptr, ptr %18, align 8
  %20 = tail call zeroext i8 @checkSameLut(ptr noundef %17, ptr noundef %19, ptr noundef %9, ptr noundef %10) #8
  %.not = icmp eq i8 %20, 0
  br i1 %.not, label %49, label %21

21:                                               ; preds = %13
  %22 = load i32, ptr %14, align 8
  %23 = load i32, ptr %15, align 8
  %24 = sub i32 %23, %2
  %25 = sext i32 %24 to i64
  %26 = ptrtoint ptr %0 to i64
  %27 = sext i32 %22 to i64
  br label %28

28:                                               ; preds = %44, %21
  %.067 = phi ptr [ %1, %21 ], [ %46, %44 ]
  %.063 = phi i32 [ %5, %21 ], [ %47, %44 ]
  %.0 = phi i32 [ %3, %21 ], [ %48, %44 ]
  %29 = ashr i32 %.063, %8
  %30 = sext i32 %29 to i64
  %31 = mul nsw i64 %30, %27
  %32 = add nsw i64 %31, %26
  %33 = inttoptr i64 %32 to ptr
  br label %34

34:                                               ; preds = %34, %28
  %.072 = phi i32 [ %4, %28 ], [ %42, %34 ]
  %.071 = phi i32 [ %2, %28 ], [ %43, %34 ]
  %.168 = phi ptr [ %.067, %28 ], [ %41, %34 ]
  %35 = ashr i32 %.072, %8
  %36 = sext i32 %35 to i64
  %37 = getelementptr inbounds i8, ptr %33, i64 %36
  %38 = load i8, ptr %37, align 1
  store i8 %38, ptr %.168, align 1
  %39 = ptrtoint ptr %.168 to i64
  %40 = add nsw i64 %39, 1
  %41 = inttoptr i64 %40 to ptr
  %42 = add nsw i32 %.072, %6
  %43 = add i32 %.071, -1
  %.not77 = icmp eq i32 %43, 0
  br i1 %.not77, label %44, label %34, !llvm.loop !34

44:                                               ; preds = %34
  %45 = add nsw i64 %40, %25
  %46 = inttoptr i64 %45 to ptr
  %47 = add nsw i32 %.063, %7
  %48 = add i32 %.0, -1
  %.not78 = icmp eq i32 %48, 0
  br i1 %.not78, label %.loopexit, label %28, !llvm.loop !35

49:                                               ; preds = %13
  %50 = getelementptr inbounds i8, ptr %10, i64 80
  %51 = load i32, ptr %14, align 8
  %52 = load i32, ptr %15, align 8
  %53 = load ptr, ptr %50, align 8
  %54 = sub i32 %52, %2
  %55 = sext i32 %54 to i64
  %56 = ptrtoint ptr %0 to i64
  %57 = sext i32 %51 to i64
  br label %58

58:                                               ; preds = %82, %49
  %.069 = phi ptr [ %1, %49 ], [ %84, %82 ]
  %.164 = phi i32 [ %5, %49 ], [ %85, %82 ]
  %.1 = phi i32 [ %3, %49 ], [ %86, %82 ]
  %59 = ashr i32 %.164, %8
  %60 = sext i32 %59 to i64
  %61 = mul nsw i64 %60, %57
  %62 = add nsw i64 %61, %56
  %63 = inttoptr i64 %62 to ptr
  br label %64

64:                                               ; preds = %64, %58
  %.170 = phi ptr [ %.069, %58 ], [ %79, %64 ]
  %.066 = phi i32 [ %2, %58 ], [ %81, %64 ]
  %.065 = phi i32 [ %4, %58 ], [ %80, %64 ]
  %65 = ashr i32 %.065, %8
  %66 = sext i32 %65 to i64
  %67 = getelementptr inbounds i8, ptr %63, i64 %66
  %68 = load i8, ptr %67, align 1
  %69 = zext i8 %68 to i64
  %70 = getelementptr inbounds i32, ptr %17, i64 %69
  %71 = load i32, ptr %70, align 4
  %72 = and i32 %71, 255
  %73 = zext nneg i32 %72 to i64
  %74 = getelementptr inbounds i32, ptr %53, i64 %73
  %75 = load i32, ptr %74, align 4
  %76 = trunc i32 %75 to i8
  store i8 %76, ptr %.170, align 1
  %77 = ptrtoint ptr %.170 to i64
  %78 = add nsw i64 %77, 1
  %79 = inttoptr i64 %78 to ptr
  %80 = add nsw i32 %.065, %6
  %81 = add i32 %.066, -1
  %.not75 = icmp eq i32 %81, 0
  br i1 %.not75, label %82, label %64, !llvm.loop !36

82:                                               ; preds = %64
  %83 = add nsw i64 %78, %55
  %84 = inttoptr i64 %83 to ptr
  %85 = add nsw i32 %.164, %7
  %86 = add i32 %.1, -1
  %.not76 = icmp eq i32 %86, 0
  br i1 %.not76, label %.loopexit, label %58, !llvm.loop !37

.loopexit:                                        ; preds = %44, %82
  ret void
}